target datalayout = "e-m:e-p270:32:32-p271:32:32-p272:64:64-i64:64-i128:128-f80:128-n8:16:32:64-S128"
target triple = "x86_64-pc-linux-gnu"

%struct.geod_polygon = type { double, double, double, double, [2 x double], [2 x double], i32, i32, i32 }

@NaN = internal global double 0.000000e+00, align 8

; Function Attrs: nounwind uwtable
define internal void @accini(ptr noundef %0) #0 {
  %2 = alloca ptr, align 8
  store ptr %0, ptr %2, align 8, !tbaa !25
  %3 = load ptr, ptr %2, align 8, !tbaa !25
  %4 = getelementptr inbounds double, ptr %3, i64 1
  store double 0.000000e+00, ptr %4, align 8, !tbaa !9
  %5 = load ptr, ptr %2, align 8, !tbaa !25
  %6 = getelementptr inbounds double, ptr %5, i64 0
  store double 0.000000e+00, ptr %6, align 8, !tbaa !9
  ret void
}

; Function Attrs: nounwind uwtable
define dso_local void @geod_polygon_clear(ptr noundef %0) #0 {
  %2 = alloca ptr, align 8
  store ptr %0, ptr %2, align 8, !tbaa !59
  %3 = load double, ptr @NaN, align 8, !tbaa !9
  %4 = load ptr, ptr %2, align 8, !tbaa !59
  %5 = getelementptr inbounds nuw %struct.geod_polygon, ptr %4, i32 0, i32 1
  store double %3, ptr %5, align 8, !tbaa !63
  %6 = load ptr, ptr %2, align 8, !tbaa !59
  %7 = getelementptr inbounds nuw %struct.geod_polygon, ptr %6, i32 0, i32 0
  store double %3, ptr %7, align 8, !tbaa !64
  %8 = load ptr, ptr %2, align 8, !tbaa !59
  %9 = getelementptr inbounds nuw %struct.geod_polygon, ptr %8, i32 0, i32 3
  store double %3, ptr %9, align 8, !tbaa !65
  %10 = load ptr, ptr %2, align 8, !tbaa !59
  %11 = getelementptr inbounds nuw %struct.geod_polygon, ptr %10, i32 0, i32 2
  store double %3, ptr %11, align 8, !tbaa !66
  %12 = load ptr, ptr %2, align 8, !tbaa !59
  %13 = getelementptr inbounds nuw %struct.geod_polygon, ptr %12, i32 0, i32 5
  %14 = getelementptr inbounds [2 x double], ptr %13, i64 0, i64 0
  call void @accini(ptr noundef %14)
  %15 = load ptr, ptr %2, align 8, !tbaa !59
  %16 = getelementptr inbounds nuw %struct.geod_polygon, ptr %15, i32 0, i32 4
  %17 = getelementptr inbounds [2 x double], ptr %16, i64 0, i64 0
  call void @accini(ptr noundef %17)
  %18 = load ptr, ptr %2, align 8, !tbaa !59
  %19 = getelementptr inbounds nuw %struct.geod_polygon, ptr %18, i32 0, i32 7
  store i32 0, ptr %19, align 4, !tbaa !67
  %20 = load ptr, ptr %2, align 8, !tbaa !59
  %21 = getelementptr inbounds nuw %struct.geod_polygon, ptr %20, i32 0, i32 8
  store i32 0, ptr %21, align 8, !tbaa !68
  ret void
}