; Function Attrs: mustprogress nofree norecurse nosync nounwind willreturn memory(read, argmem: write, inaccessiblemem: none) uwtable
define dso_local void @geod_polygon_clear(ptr noundef writeonly captures(none) initializes((0, 64), (68, 76)) %0) local_unnamed_addr #5 {
  %2 = load double, ptr @NaN, align 8, !tbaa !4
  %3 = getelementptr inbounds nuw i8, ptr %0, i64 8
  store double %2, ptr %3, align 8, !tbaa !54
  store double %2, ptr %0, align 8, !tbaa !55
  %4 = getelementptr inbounds nuw i8, ptr %0, i64 24
  store double %2, ptr %4, align 8, !tbaa !56
  %5 = getelementptr inbounds nuw i8, ptr %0, i64 16
  store double %2, ptr %5, align 8, !tbaa !57
  %6 = getelementptr inbounds nuw i8, ptr %0, i64 32
  %7 = getelementptr inbounds nuw i8, ptr %0, i64 68
  store i32 0, ptr %7, align 4, !tbaa !58
  %8 = getelementptr inbounds nuw i8, ptr %0, i64 72
  store i32 0, ptr %8, align 8, !tbaa !59
  tail call void @llvm.memset.p0.i64(ptr noundef nonnull align 8 dereferenceable(32) %6, i8 0, i64 32, i1 false)
  ret void
}